; ModuleID = '31/2053.c'
source_filename = "31/2053.c"
target datalayout = "e-m:e-p270:32:32-p271:32:32-p272:64:64-i64:64-f80:128-n8:16:32:64-S128"
target triple = "x86_64-pc-linux-gnu"

%struct.student = type { [500 x i8], %struct.student* }

@.str = private unnamed_addr constant [4 x i8] c"%s\0A\00", align 1

; Function Attrs: noinline nounwind uwtable
define dso_local i32 @main() #0 {
  %1 = alloca i32, align 4
  %2 = alloca [2000 x %struct.student], align 16
  %3 = alloca [2000 x %struct.student], align 16
  %4 = alloca i32, align 4
  %5 = alloca i32, align 4
  %6 = alloca %struct.student*, align 8
  %7 = alloca %struct.student*, align 8
  %8 = alloca %struct.student*, align 8
  store i32 0, i32* %1, align 4
  store i32 0, i32* %4, align 4
  %9 = call noalias i8* @malloc(i64 100) #4
  %10 = bitcast i8* %9 to %struct.student*
  store %struct.student* %10, %struct.student** %7, align 8
  store %struct.student* %10, %struct.student** %6, align 8
  store %struct.student* null, %struct.student** %8, align 8
  %11 = load %struct.student*, %struct.student** %6, align 8
  %12 = getelementptr inbounds %struct.student, %struct.student* %11, i32 0, i32 0
  %13 = getelementptr inbounds [500 x i8], [500 x i8]* %12, i64 0, i64 0
  %14 = call i32 (i8*, ...) bitcast (i32 (...)* @gets to i32 (i8*, ...)*)(i8* %13)
  br label %15

15:                                               ; preds = %39, %0
  %16 = load %struct.student*, %struct.student** %6, align 8
  %17 = getelementptr inbounds %struct.student, %struct.student* %16, i32 0, i32 0
  %18 = getelementptr inbounds [500 x i8], [500 x i8]* %17, i64 0, i64 0
  %19 = load i8, i8* %18, align 8
  %20 = sext i8 %19 to i32
  %21 = add nsw i32 %20, 0
  %22 = icmp ne i32 %21, 101
  br i1 %22, label %23, label %47

23:                                               ; preds = %15
  %24 = load i32, i32* %4, align 4
  %25 = sext i32 %24 to i64
  %26 = getelementptr inbounds [2000 x %struct.student], [2000 x %struct.student]* %2, i64 0, i64 %25
  %27 = load %struct.student*, %struct.student** %6, align 8
  %28 = bitcast %struct.student* %26 to i8*
  %29 = bitcast %struct.student* %27 to i8*
  call void @llvm.memcpy.p0i8.p0i8.i64(i8* align 16 %28, i8* align 8 %29, i64 512, i1 false)
  %30 = load i32, i32* %4, align 4
  %31 = add nsw i32 %30, 1
  store i32 %31, i32* %4, align 4
  %32 = icmp eq i32 %31, 1
  br i1 %32, label %33, label %35

33:                                               ; preds = %23
  %34 = load %struct.student*, %struct.student** %6, align 8
  store %struct.student* %34, %struct.student** %8, align 8
  br label %39

35:                                               ; preds = %23
  %36 = load %struct.student*, %struct.student** %6, align 8
  %37 = load %struct.student*, %struct.student** %7, align 8
  %38 = getelementptr inbounds %struct.student, %struct.student* %37, i32 0, i32 1
  store %struct.student* %36, %struct.student** %38, align 8
  br label %39

39:                                               ; preds = %35, %33
  %40 = load %struct.student*, %struct.student** %6, align 8
  store %struct.student* %40, %struct.student** %7, align 8
  %41 = call noalias i8* @malloc(i64 100) #4
  %42 = bitcast i8* %41 to %struct.student*
  store %struct.student* %42, %struct.student** %6, align 8
  %43 = load %struct.student*, %struct.student** %6, align 8
  %44 = getelementptr inbounds %struct.student, %struct.student* %43, i32 0, i32 0
  %45 = getelementptr inbounds [500 x i8], [500 x i8]* %44, i64 0, i64 0
  %46 = call i32 (i8*, ...) bitcast (i32 (...)* @gets to i32 (i8*, ...)*)(i8* %45)
  br label %15

47:                                               ; preds = %15
  %48 = load %struct.student*, %struct.student** %7, align 8
  %49 = getelementptr inbounds %struct.student, %struct.student* %48, i32 0, i32 1
  store %struct.student* null, %struct.student** %49, align 8
  store i32 0, i32* %5, align 4
  br label %50

50:                                               ; preds = %66, %47
  %51 = load i32, i32* %5, align 4
  %52 = load i32, i32* %4, align 4
  %53 = icmp slt i32 %51, %52
  br i1 %53, label %54, label %69

54:                                               ; preds = %50
  %55 = load i32, i32* %5, align 4
  %56 = sext i32 %55 to i64
  %57 = getelementptr inbounds [2000 x %struct.student], [2000 x %struct.student]* %3, i64 0, i64 %56
  %58 = load i32, i32* %4, align 4
  %59 = sub nsw i32 %58, 1
  %60 = load i32, i32* %5, align 4
  %61 = sub nsw i32 %59, %60
  %62 = sext i32 %61 to i64
  %63 = getelementptr inbounds [2000 x %struct.student], [2000 x %struct.student]* %2, i64 0, i64 %62
  %64 = bitcast %struct.student* %57 to i8*
  %65 = bitcast %struct.student* %63 to i8*
  call void @llvm.memcpy.p0i8.p0i8.i64(i8* align 16 %64, i8* align 16 %65, i64 512, i1 false)
  br label %66

66:                                               ; preds = %54
  %67 = load i32, i32* %5, align 4
  %68 = add nsw i32 %67, 1
  store i32 %68, i32* %5, align 4
  br label %50

69:                                               ; preds = %50
  store i32 0, i32* %5, align 4
  br label %70

70:                                               ; preds = %81, %69
  %71 = load i32, i32* %5, align 4
  %72 = load i32, i32* %4, align 4
  %73 = icmp slt i32 %71, %72
  br i1 %73, label %74, label %84

74:                                               ; preds = %70
  %75 = load i32, i32* %5, align 4
  %76 = sext i32 %75 to i64
  %77 = getelementptr inbounds [2000 x %struct.student], [2000 x %struct.student]* %3, i64 0, i64 %76
  %78 = getelementptr inbounds %struct.student, %struct.student* %77, i32 0, i32 0
  %79 = getelementptr inbounds [500 x i8], [500 x i8]* %78, i64 0, i64 0
  %80 = call i32 (i8*, ...) @printf(i8* getelementptr inbounds ([4 x i8], [4 x i8]* @.str, i64 0, i64 0), i8* %79)
  br label %81

81:                                               ; preds = %74
  %82 = load i32, i32* %5, align 4
  %83 = add nsw i32 %82, 1
  store i32 %83, i32* %5, align 4
  br label %70

84:                                               ; preds = %70
  ret i32 0
}

; Function Attrs: nounwind
declare dso_local noalias i8* @malloc(i64) #1

declare dso_local i32 @gets(...) #2

; Function Attrs: argmemonly nounwind willreturn
declare void @llvm.memcpy.p0i8.p0i8.i64(i8* noalias nocapture writeonly, i8* noalias nocapture readonly, i64, i1 immarg) #3

declare dso_local i32 @printf(i8*, ...) #2


!llvm.module.flags = !{!0}
!llvm.ident = !{!1}

!0 = !{i32 1, !"wchar_size", i32 4}
!1 = !{!"clang version 10.0.0-4ubuntu1 "}
